target datalayout = "e-m:e-p270:32:32-p271:32:32-p272:64:64-i64:64-i128:128-f80:128-n8:16:32:64-S128"
target triple = "x86_64-pc-linux-gnu"

%struct.strbuf = type { i64, i64, ptr }
%struct.option = type { i32, i32, ptr, ptr, ptr, ptr, i32, ptr, i64, ptr, i64, ptr }
%struct.pathspec = type { i32, i8, i32, i32, ptr }

@.str.12 = private unnamed_addr constant [6 x i8] c"quiet\00", align 1
@.str.79 = private unnamed_addr constant [18 x i8] c"include-untracked\00", align 1
@.str.87 = private unnamed_addr constant [8 x i8] c"message\00", align 1
@.str.88 = private unnamed_addr constant [14 x i8] c"stash message\00", align 1
@__const.save_stash.stash_msg_buf = private unnamed_addr constant %struct.strbuf { i64 0, i64 0, ptr @strbuf_slopbuf }, align 8
@.str.121 = private unnamed_addr constant [11 x i8] c"keep-index\00", align 1
@.str.122 = private unnamed_addr constant [11 x i8] c"keep index\00", align 1
@.str.123 = private unnamed_addr constant [7 x i8] c"staged\00", align 1
@.str.124 = private unnamed_addr constant [26 x i8] c"stash staged changes only\00", align 1
@.str.125 = private unnamed_addr constant [6 x i8] c"patch\00", align 1
@.str.126 = private unnamed_addr constant [20 x i8] c"stash in patch mode\00", align 1
@.str.127 = private unnamed_addr constant [11 x i8] c"quiet mode\00", align 1
@.str.128 = private unnamed_addr constant [33 x i8] c"include untracked files in stash\00", align 1
@.str.129 = private unnamed_addr constant [4 x i8] c"all\00", align 1
@.str.130 = private unnamed_addr constant [21 x i8] c"include ignore files\00", align 1
@git_stash_save_usage = internal constant [2 x ptr] [ptr @.str.131, ptr null], align 16

; Function Attrs: nounwind uwtable
define internal i32 @save_stash(i32 noundef %0, ptr noundef %1, ptr noundef %2, ptr noundef %3) #0 {
  %5 = alloca i32, align 4
  %6 = alloca ptr, align 8
  %7 = alloca ptr, align 8
  %8 = alloca ptr, align 8
  %9 = alloca i32, align 4
  %10 = alloca i32, align 4
  %11 = alloca i32, align 4
  %12 = alloca i32, align 4
  %13 = alloca i32, align 4
  %14 = alloca i32, align 4
  %15 = alloca ptr, align 8
  %16 = alloca %struct.pathspec, align 8
  %17 = alloca %struct.strbuf, align 8
  %18 = alloca [8 x %struct.option], align 16
  store i32 %0, ptr %5, align 4, !tbaa !4
  store ptr %1, ptr %6, align 8, !tbaa !8
  store ptr %2, ptr %7, align 8, !tbaa !11
  store ptr %3, ptr %8, align 8, !tbaa !13
  call void @llvm.lifetime.start.p0(i64 4, ptr %9) #9
  store i32 -1, ptr %9, align 4, !tbaa !4
  call void @llvm.lifetime.start.p0(i64 4, ptr %10) #9
  store i32 0, ptr %10, align 4, !tbaa !4
  call void @llvm.lifetime.start.p0(i64 4, ptr %11) #9
  store i32 0, ptr %11, align 4, !tbaa !4
  call void @llvm.lifetime.start.p0(i64 4, ptr %12) #9
  store i32 0, ptr %12, align 4, !tbaa !4
  call void @llvm.lifetime.start.p0(i64 4, ptr %13) #9
  store i32 0, ptr %13, align 4, !tbaa !4
  call void @llvm.lifetime.start.p0(i64 4, ptr %14) #9
  store i32 0, ptr %14, align 4, !tbaa !4
  call void @llvm.lifetime.start.p0(i64 8, ptr %15) #9
  store ptr null, ptr %15, align 8, !tbaa !11
  call void @llvm.lifetime.start.p0(i64 24, ptr %16) #9
  call void @llvm.lifetime.start.p0(i64 24, ptr %17) #9
  call void @llvm.memcpy.p0.p0.i64(ptr align 8 %17, ptr align 8 @__const.save_stash.stash_msg_buf, i64 24, i1 false)
  call void @llvm.lifetime.start.p0(i64 704, ptr %18) #9
  %19 = getelementptr inbounds nuw %struct.option, ptr %18, i32 0, i32 0
  store i32 9, ptr %19, align 8, !tbaa !16
  %20 = getelementptr inbounds nuw %struct.option, ptr %18, i32 0, i32 1
  store i32 107, ptr %20, align 4, !tbaa !19
  %21 = getelementptr inbounds nuw %struct.option, ptr %18, i32 0, i32 2
  store ptr @.str.121, ptr %21, align 8, !tbaa !20
  %22 = getelementptr inbounds nuw %struct.option, ptr %18, i32 0, i32 3
  store ptr %9, ptr %22, align 8, !tbaa !21
  %23 = getelementptr inbounds nuw %struct.option, ptr %18, i32 0, i32 4
  store ptr null, ptr %23, align 8, !tbaa !22
  %24 = getelementptr inbounds nuw %struct.option, ptr %18, i32 0, i32 5
  store ptr @.str.122, ptr %24, align 8, !tbaa !23
  %25 = getelementptr inbounds nuw %struct.option, ptr %18, i32 0, i32 6
  store i32 2, ptr %25, align 8, !tbaa !24
  %26 = getelementptr i8, ptr %18, i64 44
  call void @llvm.memset.p0.i64(ptr align 4 %26, i8 0, i64 4, i1 false)
  %27 = getelementptr inbounds nuw %struct.option, ptr %18, i32 0, i32 7
  store ptr null, ptr %27, align 8, !tbaa !25
  %28 = getelementptr inbounds nuw %struct.option, ptr %18, i32 0, i32 8
  store i64 1, ptr %28, align 8, !tbaa !26
  %29 = getelementptr inbounds nuw %struct.option, ptr %18, i32 0, i32 9
  store ptr null, ptr %29, align 8, !tbaa !27
  %30 = getelementptr inbounds nuw %struct.option, ptr %18, i32 0, i32 10
  store i64 0, ptr %30, align 8, !tbaa !28
  %31 = getelementptr inbounds nuw %struct.option, ptr %18, i32 0, i32 11
  store ptr null, ptr %31, align 8, !tbaa !29
  %32 = getelementptr inbounds %struct.option, ptr %18, i64 1
  %33 = getelementptr inbounds nuw %struct.option, ptr %32, i32 0, i32 0
  store i32 9, ptr %33, align 8, !tbaa !16
  %34 = getelementptr inbounds nuw %struct.option, ptr %32, i32 0, i32 1
  store i32 83, ptr %34, align 4, !tbaa !19
  %35 = getelementptr inbounds nuw %struct.option, ptr %32, i32 0, i32 2
  store ptr @.str.123, ptr %35, align 8, !tbaa !20
  %36 = getelementptr inbounds nuw %struct.option, ptr %32, i32 0, i32 3
  store ptr %10, ptr %36, align 8, !tbaa !21
  %37 = getelementptr inbounds nuw %struct.option, ptr %32, i32 0, i32 4
  store ptr null, ptr %37, align 8, !tbaa !22
  %38 = getelementptr inbounds nuw %struct.option, ptr %32, i32 0, i32 5
  store ptr @.str.124, ptr %38, align 8, !tbaa !23
  %39 = getelementptr inbounds nuw %struct.option, ptr %32, i32 0, i32 6
  store i32 2, ptr %39, align 8, !tbaa !24
  %40 = getelementptr i8, ptr %32, i64 44
  call void @llvm.memset.p0.i64(ptr align 4 %40, i8 0, i64 4, i1 false)
  %41 = getelementptr inbounds nuw %struct.option, ptr %32, i32 0, i32 7
  store ptr null, ptr %41, align 8, !tbaa !25
  %42 = getelementptr inbounds nuw %struct.option, ptr %32, i32 0, i32 8
  store i64 1, ptr %42, align 8, !tbaa !26
  %43 = getelementptr inbounds nuw %struct.option, ptr %32, i32 0, i32 9
  store ptr null, ptr %43, align 8, !tbaa !27
  %44 = getelementptr inbounds nuw %struct.option, ptr %32, i32 0, i32 10
  store i64 0, ptr %44, align 8, !tbaa !28
  %45 = getelementptr inbounds nuw %struct.option, ptr %32, i32 0, i32 11
  store ptr null, ptr %45, align 8, !tbaa !29
  %46 = getelementptr inbounds %struct.option, ptr %18, i64 2
  %47 = getelementptr inbounds nuw %struct.option, ptr %46, i32 0, i32 0
  store i32 9, ptr %47, align 8, !tbaa !16
  %48 = getelementptr inbounds nuw %struct.option, ptr %46, i32 0, i32 1
  store i32 112, ptr %48, align 4, !tbaa !19
  %49 = getelementptr inbounds nuw %struct.option, ptr %46, i32 0, i32 2
  store ptr @.str.125, ptr %49, align 8, !tbaa !20
  %50 = getelementptr inbounds nuw %struct.option, ptr %46, i32 0, i32 3
  store ptr %11, ptr %50, align 8, !tbaa !21
  %51 = getelementptr inbounds nuw %struct.option, ptr %46, i32 0, i32 4
  store ptr null, ptr %51, align 8, !tbaa !22
  %52 = getelementptr inbounds nuw %struct.option, ptr %46, i32 0, i32 5
  store ptr @.str.126, ptr %52, align 8, !tbaa !23
  %53 = getelementptr inbounds nuw %struct.option, ptr %46, i32 0, i32 6
  store i32 2, ptr %53, align 8, !tbaa !24
  %54 = getelementptr i8, ptr %46, i64 44
  call void @llvm.memset.p0.i64(ptr align 4 %54, i8 0, i64 4, i1 false)
  %55 = getelementptr inbounds nuw %struct.option, ptr %46, i32 0, i32 7
  store ptr null, ptr %55, align 8, !tbaa !25
  %56 = getelementptr inbounds nuw %struct.option, ptr %46, i32 0, i32 8
  store i64 1, ptr %56, align 8, !tbaa !26
  %57 = getelementptr inbounds nuw %struct.option, ptr %46, i32 0, i32 9
  store ptr null, ptr %57, align 8, !tbaa !27
  %58 = getelementptr inbounds nuw %struct.option, ptr %46, i32 0, i32 10
  store i64 0, ptr %58, align 8, !tbaa !28
  %59 = getelementptr inbounds nuw %struct.option, ptr %46, i32 0, i32 11
  store ptr null, ptr %59, align 8, !tbaa !29
  %60 = getelementptr inbounds %struct.option, ptr %18, i64 3
  %61 = getelementptr inbounds nuw %struct.option, ptr %60, i32 0, i32 0
  store i32 8, ptr %61, align 8, !tbaa !16
  %62 = getelementptr inbounds nuw %struct.option, ptr %60, i32 0, i32 1
  store i32 113, ptr %62, align 4, !tbaa !19
  %63 = getelementptr inbounds nuw %struct.option, ptr %60, i32 0, i32 2
  store ptr @.str.12, ptr %63, align 8, !tbaa !20
  %64 = getelementptr inbounds nuw %struct.option, ptr %60, i32 0, i32 3
  store ptr %13, ptr %64, align 8, !tbaa !21
  %65 = getelementptr inbounds nuw %struct.option, ptr %60, i32 0, i32 4
  store ptr null, ptr %65, align 8, !tbaa !22
  %66 = getelementptr inbounds nuw %struct.option, ptr %60, i32 0, i32 5
  store ptr @.str.127, ptr %66, align 8, !tbaa !23
  %67 = getelementptr inbounds nuw %struct.option, ptr %60, i32 0, i32 6
  store i32 2, ptr %67, align 8, !tbaa !24
  %68 = getelementptr i8, ptr %60, i64 44
  call void @llvm.memset.p0.i64(ptr align 4 %68, i8 0, i64 4, i1 false)
  %69 = getelementptr inbounds nuw %struct.option, ptr %60, i32 0, i32 7
  store ptr null, ptr %69, align 8, !tbaa !25
  %70 = getelementptr inbounds nuw %struct.option, ptr %60, i32 0, i32 8
  store i64 0, ptr %70, align 8, !tbaa !26
  %71 = getelementptr inbounds nuw %struct.option, ptr %60, i32 0, i32 9
  store ptr null, ptr %71, align 8, !tbaa !27
  %72 = getelementptr inbounds nuw %struct.option, ptr %60, i32 0, i32 10
  store i64 0, ptr %72, align 8, !tbaa !28
  %73 = getelementptr inbounds nuw %struct.option, ptr %60, i32 0, i32 11
  store ptr null, ptr %73, align 8, !tbaa !29
  %74 = getelementptr inbounds %struct.option, ptr %18, i64 4
  %75 = getelementptr inbounds nuw %struct.option, ptr %74, i32 0, i32 0
  store i32 9, ptr %75, align 8, !tbaa !16
  %76 = getelementptr inbounds nuw %struct.option, ptr %74, i32 0, i32 1
  store i32 117, ptr %76, align 4, !tbaa !19
  %77 = getelementptr inbounds nuw %struct.option, ptr %74, i32 0, i32 2
  store ptr @.str.79, ptr %77, align 8, !tbaa !20
  %78 = getelementptr inbounds nuw %struct.option, ptr %74, i32 0, i32 3
  store ptr %12, ptr %78, align 8, !tbaa !21
  %79 = getelementptr inbounds nuw %struct.option, ptr %74, i32 0, i32 4
  store ptr null, ptr %79, align 8, !tbaa !22
  %80 = getelementptr inbounds nuw %struct.option, ptr %74, i32 0, i32 5
  store ptr @.str.128, ptr %80, align 8, !tbaa !23
  %81 = getelementptr inbounds nuw %struct.option, ptr %74, i32 0, i32 6
  store i32 2, ptr %81, align 8, !tbaa !24
  %82 = getelementptr i8, ptr %74, i64 44
  call void @llvm.memset.p0.i64(ptr align 4 %82, i8 0, i64 4, i1 false)
  %83 = getelementptr inbounds nuw %struct.option, ptr %74, i32 0, i32 7
  store ptr null, ptr %83, align 8, !tbaa !25
  %84 = getelementptr inbounds nuw %struct.option, ptr %74, i32 0, i32 8
  store i64 1, ptr %84, align 8, !tbaa !26
  %85 = getelementptr inbounds nuw %struct.option, ptr %74, i32 0, i32 9
  store ptr null, ptr %85, align 8, !tbaa !27
  %86 = getelementptr inbounds nuw %struct.option, ptr %74, i32 0, i32 10
  store i64 0, ptr %86, align 8, !tbaa !28
  %87 = getelementptr inbounds nuw %struct.option, ptr %74, i32 0, i32 11
  store ptr null, ptr %87, align 8, !tbaa !29
  %88 = getelementptr inbounds %struct.option, ptr %18, i64 5
  %89 = getelementptr inbounds nuw %struct.option, ptr %88, i32 0, i32 0
  store i32 9, ptr %89, align 8, !tbaa !16
  %90 = getelementptr inbounds nuw %struct.option, ptr %88, i32 0, i32 1
  store i32 97, ptr %90, align 4, !tbaa !19
  %91 = getelementptr inbounds nuw %struct.option, ptr %88, i32 0, i32 2
  store ptr @.str.129, ptr %91, align 8, !tbaa !20
  %92 = getelementptr inbounds nuw %struct.option, ptr %88, i32 0, i32 3
  store ptr %12, ptr %92, align 8, !tbaa !21
  %93 = getelementptr inbounds nuw %struct.option, ptr %88, i32 0, i32 4
  store ptr null, ptr %93, align 8, !tbaa !22
  %94 = getelementptr inbounds nuw %struct.option, ptr %88, i32 0, i32 5
  store ptr @.str.130, ptr %94, align 8, !tbaa !23
  %95 = getelementptr inbounds nuw %struct.option, ptr %88, i32 0, i32 6
  store i32 2, ptr %95, align 8, !tbaa !24
  %96 = getelementptr i8, ptr %88, i64 44
  call void @llvm.memset.p0.i64(ptr align 4 %96, i8 0, i64 4, i1 false)
  %97 = getelementptr inbounds nuw %struct.option, ptr %88, i32 0, i32 7
  store ptr null, ptr %97, align 8, !tbaa !25
  %98 = getelementptr inbounds nuw %struct.option, ptr %88, i32 0, i32 8
  store i64 2, ptr %98, align 8, !tbaa !26
  %99 = getelementptr inbounds nuw %struct.option, ptr %88, i32 0, i32 9
  store ptr null, ptr %99, align 8, !tbaa !27
  %100 = getelementptr inbounds nuw %struct.option, ptr %88, i32 0, i32 10
  store i64 0, ptr %100, align 8, !tbaa !28
  %101 = getelementptr inbounds nuw %struct.option, ptr %88, i32 0, i32 11
  store ptr null, ptr %101, align 8, !tbaa !29
  %102 = getelementptr inbounds %struct.option, ptr %18, i64 6
  %103 = getelementptr inbounds nuw %struct.option, ptr %102, i32 0, i32 0
  store i32 10, ptr %103, align 8, !tbaa !16
  %104 = getelementptr inbounds nuw %struct.option, ptr %102, i32 0, i32 1
  store i32 109, ptr %104, align 4, !tbaa !19
  %105 = getelementptr inbounds nuw %struct.option, ptr %102, i32 0, i32 2
  store ptr @.str.87, ptr %105, align 8, !tbaa !20
  %106 = getelementptr inbounds nuw %struct.option, ptr %102, i32 0, i32 3
  store ptr %15, ptr %106, align 8, !tbaa !21
  %107 = getelementptr inbounds nuw %struct.option, ptr %102, i32 0, i32 4
  store ptr @.str.87, ptr %107, align 8, !tbaa !22
  %108 = getelementptr inbounds nuw %struct.option, ptr %102, i32 0, i32 5
  store ptr @.str.88, ptr %108, align 8, !tbaa !23
  %109 = getelementptr inbounds nuw %struct.option, ptr %102, i32 0, i32 6
  store i32 0, ptr %109, align 8, !tbaa !24
  %110 = getelementptr i8, ptr %102, i64 44
  call void @llvm.memset.p0.i64(ptr align 4 %110, i8 0, i64 4, i1 false)
  %111 = getelementptr inbounds nuw %struct.option, ptr %102, i32 0, i32 7
  store ptr null, ptr %111, align 8, !tbaa !25
  %112 = getelementptr inbounds nuw %struct.option, ptr %102, i32 0, i32 8
  store i64 0, ptr %112, align 8, !tbaa !26
  %113 = getelementptr inbounds nuw %struct.option, ptr %102, i32 0, i32 9
  store ptr null, ptr %113, align 8, !tbaa !27
  %114 = getelementptr inbounds nuw %struct.option, ptr %102, i32 0, i32 10
  store i64 0, ptr %114, align 8, !tbaa !28
  %115 = getelementptr inbounds nuw %struct.option, ptr %102, i32 0, i32 11
  store ptr null, ptr %115, align 8, !tbaa !29
  %116 = getelementptr inbounds %struct.option, ptr %18, i64 7
  call void @llvm.memset.p0.i64(ptr align 8 %116, i8 0, i64 88, i1 false)
  %117 = getelementptr inbounds nuw %struct.option, ptr %116, i32 0, i32 0
  store i32 0, ptr %117, align 8, !tbaa !16
  %118 = load i32, ptr %5, align 4, !tbaa !4
  %119 = load ptr, ptr %6, align 8, !tbaa !8
  %120 = load ptr, ptr %7, align 8, !tbaa !11
  %121 = getelementptr inbounds [8 x %struct.option], ptr %18, i64 0, i64 0
  %122 = call i32 @parse_options(i32 noundef %118, ptr noundef %119, ptr noundef %120, ptr noundef %121, ptr noundef @git_stash_save_usage, i32 noundef 1)
  store i32 %122, ptr %5, align 4, !tbaa !4
  %123 = load i32, ptr %5, align 4, !tbaa !4
  %124 = icmp ne i32 %123, 0
  br i1 %124, label %125, label %129

125:                                              ; preds = %4
  %126 = load i32, ptr %5, align 4, !tbaa !4
  %127 = load ptr, ptr %6, align 8, !tbaa !8
  %128 = call ptr @strbuf_join_argv(ptr noundef %17, i32 noundef %126, ptr noundef %127, i8 noundef signext 32)
  store ptr %128, ptr %15, align 8, !tbaa !11
  br label %129

129:                                              ; preds = %125, %4
  call void @llvm.memset.p0.i64(ptr align 8 %16, i8 0, i64 24, i1 false)
  %130 = load ptr, ptr %15, align 8, !tbaa !11
  %131 = load i32, ptr %13, align 4, !tbaa !4
  %132 = load i32, ptr %9, align 4, !tbaa !4
  %133 = load i32, ptr %11, align 4, !tbaa !4
  %134 = load i32, ptr %12, align 4, !tbaa !4
  %135 = load i32, ptr %10, align 4, !tbaa !4
  %136 = call i32 @do_push_stash(ptr noundef %16, ptr noundef %130, i32 noundef %131, i32 noundef %132, i32 noundef %133, i32 noundef %134, i32 noundef %135)
  store i32 %136, ptr %14, align 4, !tbaa !4
  call void @strbuf_release(ptr noundef %17)
  %137 = load i32, ptr %14, align 4, !tbaa !4
  call void @llvm.lifetime.end.p0(i64 704, ptr %18) #9
  call void @llvm.lifetime.end.p0(i64 24, ptr %17) #9
  call void @llvm.lifetime.end.p0(i64 24, ptr %16) #9
  call void @llvm.lifetime.end.p0(i64 8, ptr %15) #9
  call void @llvm.lifetime.end.p0(i64 4, ptr %14) #9
  call void @llvm.lifetime.end.p0(i64 4, ptr %13) #9
  call void @llvm.lifetime.end.p0(i64 4, ptr %12) #9
  call void @llvm.lifetime.end.p0(i64 4, ptr %11) #9
  call void @llvm.lifetime.end.p0(i64 4, ptr %10) #9
  call void @llvm.lifetime.end.p0(i64 4, ptr %9) #9
  ret i32 %137
}