; Function Attrs: nounwind uwtable
define internal range(i32 -1, 1) i32 @save_stash(i32 noundef %0, ptr noundef %1, ptr noundef %2, ptr readnone captures(none) %3) #0 {
  %5 = alloca i32, align 4
  %6 = alloca i32, align 4
  %7 = alloca i32, align 4
  %8 = alloca i32, align 4
  %9 = alloca i32, align 4
  %10 = alloca ptr, align 8
  %11 = alloca %struct.pathspec, align 8
  %12 = alloca %struct.strbuf, align 8
  %13 = alloca [8 x %struct.option], align 16
  call void @llvm.lifetime.start.p0(i64 4, ptr nonnull %5) #15
  store i32 -1, ptr %5, align 4, !tbaa !42
  call void @llvm.lifetime.start.p0(i64 4, ptr nonnull %6) #15
  store i32 0, ptr %6, align 4, !tbaa !42
  call void @llvm.lifetime.start.p0(i64 4, ptr nonnull %7) #15
  store i32 0, ptr %7, align 4, !tbaa !42
  call void @llvm.lifetime.start.p0(i64 4, ptr nonnull %8) #15
  store i32 0, ptr %8, align 4, !tbaa !42
  call void @llvm.lifetime.start.p0(i64 4, ptr nonnull %9) #15
  store i32 0, ptr %9, align 4, !tbaa !42
  call void @llvm.lifetime.start.p0(i64 8, ptr nonnull %10) #15
  store ptr null, ptr %10, align 8, !tbaa !54
  call void @llvm.lifetime.start.p0(i64 24, ptr nonnull %11) #15
  call void @llvm.lifetime.start.p0(i64 24, ptr nonnull %12) #15
  call void @llvm.memcpy.p0.p0.i64(ptr noundef nonnull align 8 dereferenceable(24) %12, ptr noundef nonnull align 8 dereferenceable(24) @__const.do_push_stash.out, i64 24, i1 false)
  call void @llvm.lifetime.start.p0(i64 704, ptr nonnull %13) #15
  store i32 9, ptr %13, align 16, !tbaa !8
  %14 = getelementptr inbounds nuw i8, ptr %13, i64 4
  store i32 107, ptr %14, align 4, !tbaa !13
  %15 = getelementptr inbounds nuw i8, ptr %13, i64 8
  store ptr @.str.121, ptr %15, align 8, !tbaa !14
  %16 = getelementptr inbounds nuw i8, ptr %13, i64 16
  store ptr %5, ptr %16, align 16, !tbaa !15
  %17 = getelementptr inbounds nuw i8, ptr %13, i64 24
  store ptr null, ptr %17, align 8, !tbaa !43
  %18 = getelementptr inbounds nuw i8, ptr %13, i64 32
  store ptr @.str.122, ptr %18, align 16, !tbaa !44
  %19 = getelementptr inbounds nuw i8, ptr %13, i64 40
  store i32 2, ptr %19, align 8, !tbaa !17
  %20 = getelementptr inbounds nuw i8, ptr %13, i64 44
  store i32 0, ptr %20, align 4
  %21 = getelementptr inbounds nuw i8, ptr %13, i64 48
  store ptr null, ptr %21, align 16, !tbaa !45
  %22 = getelementptr inbounds nuw i8, ptr %13, i64 56
  store i64 1, ptr %22, align 8, !tbaa !46
  %23 = getelementptr inbounds nuw i8, ptr %13, i64 64
  %24 = getelementptr inbounds nuw i8, ptr %13, i64 88
  call void @llvm.memset.p0.i64(ptr noundef nonnull align 16 dereferenceable(24) %23, i8 0, i64 24, i1 false)
  store i32 9, ptr %24, align 8, !tbaa !8
  %25 = getelementptr inbounds nuw i8, ptr %13, i64 92
  store i32 83, ptr %25, align 4, !tbaa !13
  %26 = getelementptr inbounds nuw i8, ptr %13, i64 96
  store ptr @.str.123, ptr %26, align 16, !tbaa !14
  %27 = getelementptr inbounds nuw i8, ptr %13, i64 104
  store ptr %6, ptr %27, align 8, !tbaa !15
  %28 = getelementptr inbounds nuw i8, ptr %13, i64 112
  store ptr null, ptr %28, align 16, !tbaa !43
  %29 = getelementptr inbounds nuw i8, ptr %13, i64 120
  store ptr @.str.124, ptr %29, align 8, !tbaa !44
  %30 = getelementptr inbounds nuw i8, ptr %13, i64 128
  store i32 2, ptr %30, align 16, !tbaa !17
  %31 = getelementptr inbounds nuw i8, ptr %13, i64 132
  store i32 0, ptr %31, align 4
  %32 = getelementptr inbounds nuw i8, ptr %13, i64 136
  store ptr null, ptr %32, align 8, !tbaa !45
  %33 = getelementptr inbounds nuw i8, ptr %13, i64 144
  store i64 1, ptr %33, align 16, !tbaa !46
  %34 = getelementptr inbounds nuw i8, ptr %13, i64 152
  %35 = getelementptr inbounds nuw i8, ptr %13, i64 176
  call void @llvm.memset.p0.i64(ptr noundef nonnull align 8 dereferenceable(24) %34, i8 0, i64 24, i1 false)
  store i32 9, ptr %35, align 16, !tbaa !8
  %36 = getelementptr inbounds nuw i8, ptr %13, i64 180
  store i32 112, ptr %36, align 4, !tbaa !13
  %37 = getelementptr inbounds nuw i8, ptr %13, i64 184
  store ptr @.str.125, ptr %37, align 8, !tbaa !14
  %38 = getelementptr inbounds nuw i8, ptr %13, i64 192
  store ptr %7, ptr %38, align 16, !tbaa !15
  %39 = getelementptr inbounds nuw i8, ptr %13, i64 200
  store ptr null, ptr %39, align 8, !tbaa !43
  %40 = getelementptr inbounds nuw i8, ptr %13, i64 208
  store ptr @.str.126, ptr %40, align 16, !tbaa !44
  %41 = getelementptr inbounds nuw i8, ptr %13, i64 216
  store i32 2, ptr %41, align 8, !tbaa !17
  %42 = getelementptr inbounds nuw i8, ptr %13, i64 220
  store i32 0, ptr %42, align 4
  %43 = getelementptr inbounds nuw i8, ptr %13, i64 224
  store ptr null, ptr %43, align 16, !tbaa !45
  %44 = getelementptr inbounds nuw i8, ptr %13, i64 232
  store i64 1, ptr %44, align 8, !tbaa !46
  %45 = getelementptr inbounds nuw i8, ptr %13, i64 240
  %46 = getelementptr inbounds nuw i8, ptr %13, i64 264
  call void @llvm.memset.p0.i64(ptr noundef nonnull align 16 dereferenceable(24) %45, i8 0, i64 24, i1 false)
  store i32 8, ptr %46, align 8, !tbaa !8
  %47 = getelementptr inbounds nuw i8, ptr %13, i64 268
  store i32 113, ptr %47, align 4, !tbaa !13
  %48 = getelementptr inbounds nuw i8, ptr %13, i64 272
  store ptr @.str.12, ptr %48, align 16, !tbaa !14
  %49 = getelementptr inbounds nuw i8, ptr %13, i64 280
  store ptr %9, ptr %49, align 8, !tbaa !15
  %50 = getelementptr inbounds nuw i8, ptr %13, i64 288
  store ptr null, ptr %50, align 16, !tbaa !43
  %51 = getelementptr inbounds nuw i8, ptr %13, i64 296
  store ptr @.str.127, ptr %51, align 8, !tbaa !44
  %52 = getelementptr inbounds nuw i8, ptr %13, i64 304
  store i32 2, ptr %52, align 16, !tbaa !17
  %53 = getelementptr inbounds nuw i8, ptr %13, i64 308
  %54 = getelementptr inbounds nuw i8, ptr %13, i64 352
  call void @llvm.memset.p0.i64(ptr noundef nonnull align 4 dereferenceable(44) %53, i8 0, i64 44, i1 false)
  store i32 9, ptr %54, align 16, !tbaa !8
  %55 = getelementptr inbounds nuw i8, ptr %13, i64 356
  store i32 117, ptr %55, align 4, !tbaa !13
  %56 = getelementptr inbounds nuw i8, ptr %13, i64 360
  store ptr @.str.79, ptr %56, align 8, !tbaa !14
  %57 = getelementptr inbounds nuw i8, ptr %13, i64 368
  store ptr %8, ptr %57, align 16, !tbaa !15
  %58 = getelementptr inbounds nuw i8, ptr %13, i64 376
  store ptr null, ptr %58, align 8, !tbaa !43
  %59 = getelementptr inbounds nuw i8, ptr %13, i64 384
  store ptr @.str.128, ptr %59, align 16, !tbaa !44
  %60 = getelementptr inbounds nuw i8, ptr %13, i64 392
  store i32 2, ptr %60, align 8, !tbaa !17
  %61 = getelementptr inbounds nuw i8, ptr %13, i64 396
  store i32 0, ptr %61, align 4
  %62 = getelementptr inbounds nuw i8, ptr %13, i64 400
  store ptr null, ptr %62, align 16, !tbaa !45
  %63 = getelementptr inbounds nuw i8, ptr %13, i64 408
  store i64 1, ptr %63, align 8, !tbaa !46
  %64 = getelementptr inbounds nuw i8, ptr %13, i64 416
  %65 = getelementptr inbounds nuw i8, ptr %13, i64 440
  call void @llvm.memset.p0.i64(ptr noundef nonnull align 16 dereferenceable(24) %64, i8 0, i64 24, i1 false)
  store i32 9, ptr %65, align 8, !tbaa !8
  %66 = getelementptr inbounds nuw i8, ptr %13, i64 444
  store i32 97, ptr %66, align 4, !tbaa !13
  %67 = getelementptr inbounds nuw i8, ptr %13, i64 448
  store ptr @.str.129, ptr %67, align 16, !tbaa !14
  %68 = getelementptr inbounds nuw i8, ptr %13, i64 456
  store ptr %8, ptr %68, align 8, !tbaa !15
  %69 = getelementptr inbounds nuw i8, ptr %13, i64 464
  store ptr null, ptr %69, align 16, !tbaa !43
  %70 = getelementptr inbounds nuw i8, ptr %13, i64 472
  store ptr @.str.130, ptr %70, align 8, !tbaa !44
  %71 = getelementptr inbounds nuw i8, ptr %13, i64 480
  store i32 2, ptr %71, align 16, !tbaa !17
  %72 = getelementptr inbounds nuw i8, ptr %13, i64 484
  store i32 0, ptr %72, align 4
  %73 = getelementptr inbounds nuw i8, ptr %13, i64 488
  store ptr null, ptr %73, align 8, !tbaa !45
  %74 = getelementptr inbounds nuw i8, ptr %13, i64 496
  store i64 2, ptr %74, align 16, !tbaa !46
  %75 = getelementptr inbounds nuw i8, ptr %13, i64 504
  %76 = getelementptr inbounds nuw i8, ptr %13, i64 528
  call void @llvm.memset.p0.i64(ptr noundef nonnull align 8 dereferenceable(24) %75, i8 0, i64 24, i1 false)
  store i32 10, ptr %76, align 16, !tbaa !8
  %77 = getelementptr inbounds nuw i8, ptr %13, i64 532
  store i32 109, ptr %77, align 4, !tbaa !13
  %78 = getelementptr inbounds nuw i8, ptr %13, i64 536
  store ptr @.str.87, ptr %78, align 8, !tbaa !14
  %79 = getelementptr inbounds nuw i8, ptr %13, i64 544
  store ptr %10, ptr %79, align 16, !tbaa !15
  %80 = getelementptr inbounds nuw i8, ptr %13, i64 552
  store ptr @.str.87, ptr %80, align 8, !tbaa !43
  %81 = getelementptr inbounds nuw i8, ptr %13, i64 560
  store ptr @.str.88, ptr %81, align 16, !tbaa !44
  %82 = getelementptr inbounds nuw i8, ptr %13, i64 568
  call void @llvm.memset.p0.i64(ptr noundef nonnull align 8 dereferenceable(136) %82, i8 0, i64 136, i1 false)
  %83 = call i32 @parse_options(i32 noundef %0, ptr noundef %1, ptr noundef %2, ptr noundef nonnull %13, ptr noundef nonnull @git_stash_save_usage, i32 noundef 1) #15
  %.not = icmp eq i32 %83, 0
  br i1 %.not, label %._crit_edge, label %84

._crit_edge:                                      ; preds = %4
  %.pre = load ptr, ptr %10, align 8, !tbaa !54
  br label %86

84:                                               ; preds = %4
  %85 = call ptr @strbuf_join_argv(ptr noundef nonnull %12, i32 noundef %83, ptr noundef %1, i8 noundef signext 32) #15
  store ptr %85, ptr %10, align 8, !tbaa !54
  br label %86

86:                                               ; preds = %._crit_edge, %84
  %87 = phi ptr [ %.pre, %._crit_edge ], [ %85, %84 ]
  call void @llvm.memset.p0.i64(ptr noundef nonnull align 8 dereferenceable(24) %11, i8 0, i64 24, i1 false)
  %88 = load i32, ptr %9, align 4, !tbaa !42
  %89 = load i32, ptr %5, align 4, !tbaa !42
  %90 = load i32, ptr %7, align 4, !tbaa !42
  %91 = load i32, ptr %8, align 4, !tbaa !42
  %92 = load i32, ptr %6, align 4, !tbaa !42
  %93 = call fastcc i32 @do_push_stash(ptr noundef %11, ptr noundef %87, i32 noundef %88, i32 noundef %89, i32 noundef %90, i32 noundef %91, i32 noundef %92)
  call void @strbuf_release(ptr noundef nonnull %12) #15
  call void @llvm.lifetime.end.p0(i64 704, ptr nonnull %13) #15
  call void @llvm.lifetime.end.p0(i64 24, ptr nonnull %12) #15
  call void @llvm.lifetime.end.p0(i64 24, ptr nonnull %11) #15
  call void @llvm.lifetime.end.p0(i64 8, ptr nonnull %10) #15
  call void @llvm.lifetime.end.p0(i64 4, ptr nonnull %9) #15
  call void @llvm.lifetime.end.p0(i64 4, ptr nonnull %8) #15
  call void @llvm.lifetime.end.p0(i64 4, ptr nonnull %7) #15
  call void @llvm.lifetime.end.p0(i64 4, ptr nonnull %6) #15
  call void @llvm.lifetime.end.p0(i64 4, ptr nonnull %5) #15
  ret i32 %93
}